; Function Attrs: mustprogress noreturn uwtable
define hidden void @_ZN17duckdb_libpgquery4elogEiPKcz(i32 noundef %0, ptr noundef readnone captures(none) %1, ...) local_unnamed_addr #14 personality ptr @__gxx_personality_v0 {
  %3 = tail call ptr @__cxa_allocate_exception(i64 16) #24
  invoke void @_ZNSt13runtime_errorC1EPKc(ptr noundef nonnull align 8 dereferenceable(16) %3, ptr noundef nonnull @.str)
          to label %4 unwind label %5

4:                                                ; preds = %2
  tail call void @__cxa_throw(ptr nonnull %3, ptr nonnull @_ZTISt13runtime_error, ptr nonnull @_ZNSt13runtime_errorD1Ev) #25
  unreachable

5:                                                ; preds = %2
  %6 = landingpad { ptr, i32 }
          cleanup
  tail call void @__cxa_free_exception(ptr nonnull %3) #24
  resume { ptr, i32 } %6
}